target datalayout = "e-m:e-p270:32:32-p271:32:32-p272:64:64-i64:64-i128:128-f80:128-n8:16:32:64-S128"
target triple = "x86_64-pc-linux-gnu"

@stderr = external global ptr, align 8
@.str = private unnamed_addr constant [36 x i8] c"USAGE: %s <correct MD5 sum> <file>\0A\00", align 1
@.str.1 = private unnamed_addr constant [34 x i8] c"WARNING: MD5 hash size is wrong.\0A\00", align 1
@.str.2 = private unnamed_addr constant [25 x i8] c"Could not obtain MD5 sum\00", align 1
@.str.3 = private unnamed_addr constant [8 x i8] c"%s: OK\0A\00", align 1
@.str.4 = private unnamed_addr constant [29 x i8] c"%s: FAILED.  Checksum is %s\0A\00", align 1

; Function Attrs: nounwind uwtable
define dso_local i32 @main(i32 noundef %0, ptr noundef %1) #0 {
  %3 = alloca i32, align 4
  %4 = alloca i32, align 4
  %5 = alloca ptr, align 8
  %6 = alloca ptr, align 8
  %7 = alloca [65 x i8], align 16
  %8 = alloca i32, align 4
  store i32 0, ptr %3, align 4
  store i32 %0, ptr %4, align 4, !tbaa !4
  store ptr %1, ptr %5, align 8, !tbaa !8
  call void @llvm.lifetime.start.p0(i64 8, ptr %6) #5
  store ptr null, ptr %6, align 8, !tbaa !11
  call void @llvm.lifetime.start.p0(i64 65, ptr %7) #5
  %9 = load i32, ptr %4, align 4, !tbaa !4
  %10 = icmp slt i32 %9, 3
  br i1 %10, label %11, label %17

11:                                               ; preds = %2
  %12 = load ptr, ptr @stderr, align 8, !tbaa !13
  %13 = load ptr, ptr %5, align 8, !tbaa !8
  %14 = getelementptr inbounds ptr, ptr %13, i64 0
  %15 = load ptr, ptr %14, align 8, !tbaa !11
  %16 = call i32 (ptr, ptr, ...) @fprintf(ptr noundef %12, ptr noundef @.str, ptr noundef %15) #5
  store i32 -1, ptr %3, align 4
  store i32 1, ptr %8, align 4
  br label %55

17:                                               ; preds = %2
  %18 = load ptr, ptr %5, align 8, !tbaa !8
  %19 = getelementptr inbounds ptr, ptr %18, i64 1
  %20 = load ptr, ptr %19, align 8, !tbaa !11
  %21 = call i64 @strlen(ptr noundef %20) #6
  %22 = icmp ne i64 %21, 32
  br i1 %22, label %23, label %26

23:                                               ; preds = %17
  %24 = load ptr, ptr @stderr, align 8, !tbaa !13
  %25 = call i32 (ptr, ptr, ...) @fprintf(ptr noundef %24, ptr noundef @.str.1) #5
  br label %26

26:                                               ; preds = %23, %17
  %27 = load ptr, ptr %5, align 8, !tbaa !8
  %28 = getelementptr inbounds ptr, ptr %27, i64 2
  %29 = load ptr, ptr %28, align 8, !tbaa !11
  %30 = getelementptr inbounds [65 x i8], ptr %7, i64 0, i64 0
  %31 = call ptr @MD5File(ptr noundef %29, ptr noundef %30)
  store ptr %31, ptr %6, align 8, !tbaa !11
  %32 = load ptr, ptr %6, align 8, !tbaa !11
  %33 = icmp ne ptr %32, null
  br i1 %33, label %35, label %34

34:                                               ; preds = %26
  call void @perror(ptr noundef @.str.2)
  store i32 -1, ptr %3, align 4
  store i32 1, ptr %8, align 4
  br label %55

35:                                               ; preds = %26
  %36 = load ptr, ptr %6, align 8, !tbaa !11
  %37 = load ptr, ptr %5, align 8, !tbaa !8
  %38 = getelementptr inbounds ptr, ptr %37, i64 1
  %39 = load ptr, ptr %38, align 8, !tbaa !11
  %40 = call i32 @strcasecmp(ptr noundef %36, ptr noundef %39) #6
  %41 = icmp ne i32 %40, 0
  br i1 %41, label %48, label %42

42:                                               ; preds = %35
  %43 = load ptr, ptr @stderr, align 8, !tbaa !13
  %44 = load ptr, ptr %5, align 8, !tbaa !8
  %45 = getelementptr inbounds ptr, ptr %44, i64 2
  %46 = load ptr, ptr %45, align 8, !tbaa !11
  %47 = call i32 (ptr, ptr, ...) @fprintf(ptr noundef %43, ptr noundef @.str.3, ptr noundef %46) #5
  store i32 0, ptr %3, align 4
  store i32 1, ptr %8, align 4
  br label %55

48:                                               ; preds = %35
  %49 = load ptr, ptr @stderr, align 8, !tbaa !13
  %50 = load ptr, ptr %5, align 8, !tbaa !8
  %51 = getelementptr inbounds ptr, ptr %50, i64 2
  %52 = load ptr, ptr %51, align 8, !tbaa !11
  %53 = load ptr, ptr %6, align 8, !tbaa !11
  %54 = call i32 (ptr, ptr, ...) @fprintf(ptr noundef %49, ptr noundef @.str.4, ptr noundef %52, ptr noundef %53) #5
  store i32 -1, ptr %3, align 4
  store i32 1, ptr %8, align 4
  br label %55

55:                                               ; preds = %48, %42, %34, %11
  call void @llvm.lifetime.end.p0(i64 65, ptr %7) #5
  call void @llvm.lifetime.end.p0(i64 8, ptr %6) #5
  %56 = load i32, ptr %3, align 4
  ret i32 %56
}

; Function Attrs: nocallback nofree nosync nounwind willreturn memory(argmem: readwrite)
declare void @llvm.lifetime.start.p0(i64 immarg, ptr captures(none)) #1

; Function Attrs: nounwind
declare i32 @fprintf(ptr noundef, ptr noundef, ...) #2

; Function Attrs: nounwind willreturn memory(read)
declare i64 @strlen(ptr noundef) #3

declare ptr @MD5File(ptr noundef, ptr noundef) #4

declare void @perror(ptr noundef) #4

; Function Attrs: nounwind willreturn memory(read)
declare i32 @strcasecmp(ptr noundef, ptr noundef) #3

; Function Attrs: nocallback nofree nosync nounwind willreturn memory(argmem: readwrite)
declare void @llvm.lifetime.end.p0(i64 immarg, ptr captures(none)) #1


!llvm.module.flags = !{!0, !1, !2, !3}

!0 = !{i32 1, !"wchar_size", i32 4}
!1 = !{i32 8, !"PIC Level", i32 2}
!2 = !{i32 7, !"PIE Level", i32 2}
!3 = !{i32 7, !"uwtable", i32 2}
!4 = !{!5, !5, i64 0}
!5 = !{!"int", !6, i64 0}
!6 = !{!"omnipotent char", !7, i64 0}
!7 = !{!"Simple C/C++ TBAA"}
!8 = !{!9, !9, i64 0}
!9 = !{!"p2 omnipotent char", !10, i64 0}
!10 = !{!"any pointer", !6, i64 0}
!11 = !{!12, !12, i64 0}
!12 = !{!"p1 omnipotent char", !10, i64 0}
!13 = !{!14, !14, i64 0}
!14 = !{!"p1 _ZTS8_IO_FILE", !10, i64 0}
