; ModuleID = 'bench/libjpeg-turbo/original/md5cmp.ll'
source_filename = "bench/libjpeg-turbo/original/md5cmp.ll"
target datalayout = "e-m:e-p270:32:32-p271:32:32-p272:64:64-i64:64-i128:128-f80:128-n8:16:32:64-S128"
target triple = "x86_64-pc-linux-gnu"

@stderr = external local_unnamed_addr global ptr, align 8
@.str = private unnamed_addr constant [36 x i8] c"USAGE: %s <correct MD5 sum> <file>\0A\00", align 1
@.str.1 = private unnamed_addr constant [34 x i8] c"WARNING: MD5 hash size is wrong.\0A\00", align 1
@.str.2 = private unnamed_addr constant [25 x i8] c"Could not obtain MD5 sum\00", align 1
@.str.3 = private unnamed_addr constant [8 x i8] c"%s: OK\0A\00", align 1
@.str.4 = private unnamed_addr constant [29 x i8] c"%s: FAILED.  Checksum is %s\0A\00", align 1

; Function Attrs: cold nounwind uwtable
define dso_local range(i32 -1, 1) i32 @main(i32 noundef %0, ptr noundef readonly captures(none) %1) local_unnamed_addr #0 {
  %3 = alloca [65 x i8], align 16
  call void @llvm.lifetime.start.p0(i64 65, ptr nonnull %3) #7
  %4 = icmp slt i32 %0, 3
  br i1 %4, label %5, label %9

5:                                                ; preds = %2
  %6 = load ptr, ptr @stderr, align 8, !tbaa !4
  %7 = load ptr, ptr %1, align 8, !tbaa !9
  %8 = tail call i32 (ptr, ptr, ...) @fprintf(ptr noundef %6, ptr noundef nonnull @.str, ptr noundef %7) #8
  br label %30

9:                                                ; preds = %2
  %10 = getelementptr inbounds nuw i8, ptr %1, i64 8
  %11 = load ptr, ptr %10, align 8, !tbaa !9
  %12 = tail call i64 @strlen(ptr noundef nonnull dereferenceable(1) %11) #9
  %.not = icmp eq i64 %12, 32
  br i1 %.not, label %16, label %13

13:                                               ; preds = %9
  %14 = load ptr, ptr @stderr, align 8, !tbaa !4
  %15 = tail call i64 @fwrite(ptr nonnull @.str.1, i64 33, i64 1, ptr %14) #10
  br label %16

16:                                               ; preds = %13, %9
  %17 = getelementptr inbounds nuw i8, ptr %1, i64 16
  %18 = load ptr, ptr %17, align 8, !tbaa !9
  %19 = call ptr @MD5File(ptr noundef %18, ptr noundef nonnull %3) #7
  %.not11 = icmp eq ptr %19, null
  br i1 %.not11, label %20, label %21

20:                                               ; preds = %16
  call void @perror(ptr noundef nonnull @.str.2) #10
  br label %30

21:                                               ; preds = %16
  %22 = load ptr, ptr %10, align 8, !tbaa !9
  %23 = call i32 @strcasecmp(ptr noundef nonnull %19, ptr noundef %22) #9
  %.not12 = icmp eq i32 %23, 0
  %24 = load ptr, ptr @stderr, align 8, !tbaa !4
  %25 = load ptr, ptr %17, align 8, !tbaa !9
  br i1 %.not12, label %26, label %28

26:                                               ; preds = %21
  %27 = call i32 (ptr, ptr, ...) @fprintf(ptr noundef %24, ptr noundef nonnull @.str.3, ptr noundef %25) #8
  br label %30

28:                                               ; preds = %21
  %29 = call i32 (ptr, ptr, ...) @fprintf(ptr noundef %24, ptr noundef nonnull @.str.4, ptr noundef %25, ptr noundef nonnull %19) #8
  br label %30

30:                                               ; preds = %28, %26, %20, %5
  %.0 = phi i32 [ -1, %5 ], [ -1, %28 ], [ 0, %26 ], [ -1, %20 ]
  call void @llvm.lifetime.end.p0(i64 65, ptr nonnull %3) #7
  ret i32 %.0
}

; Function Attrs: mustprogress nocallback nofree nosync nounwind willreturn memory(argmem: readwrite)
declare void @llvm.lifetime.start.p0(i64 immarg, ptr captures(none)) #1

; Function Attrs: nofree nounwind
declare noundef i32 @fprintf(ptr noundef captures(none), ptr noundef readonly captures(none), ...) local_unnamed_addr #2

; Function Attrs: mustprogress nofree nounwind willreturn memory(argmem: read)
declare i64 @strlen(ptr noundef captures(none)) local_unnamed_addr #3

declare ptr @MD5File(ptr noundef, ptr noundef) local_unnamed_addr #4

; Function Attrs: nofree nounwind
declare void @perror(ptr noundef readonly captures(none)) local_unnamed_addr #2

; Function Attrs: mustprogress nofree nounwind willreturn memory(read)
declare i32 @strcasecmp(ptr noundef captures(none), ptr noundef captures(none)) local_unnamed_addr #5

; Function Attrs: mustprogress nocallback nofree nosync nounwind willreturn memory(argmem: readwrite)
declare void @llvm.lifetime.end.p0(i64 immarg, ptr captures(none)) #1

; Function Attrs: nofree nounwind
declare noundef i64 @fwrite(ptr noundef captures(none), i64 noundef, i64 noundef, ptr noundef captures(none)) local_unnamed_addr #6


!llvm.module.flags = !{!0, !1, !2, !3}

!0 = !{i32 1, !"wchar_size", i32 4}
!1 = !{i32 8, !"PIC Level", i32 2}
!2 = !{i32 7, !"PIE Level", i32 2}
!3 = !{i32 7, !"uwtable", i32 2}
!4 = !{!5, !5, i64 0}
!5 = !{!"p1 _ZTS8_IO_FILE", !6, i64 0}
!6 = !{!"any pointer", !7, i64 0}
!7 = !{!"omnipotent char", !8, i64 0}
!8 = !{!"Simple C/C++ TBAA"}
!9 = !{!10, !10, i64 0}
!10 = !{!"p1 omnipotent char", !6, i64 0}
